target datalayout = "e-m:e-p270:32:32-p271:32:32-p272:64:64-i64:64-i128:128-f80:128-n8:16:32:64-S128"
target triple = "x86_64-pc-linux-gnu"

@environ = external global ptr, align 8
@system_environ = internal global ptr null, align 8
@alloc_environ = internal global ptr null, align 8
@orig_environ = internal global ptr null, align 8

; Function Attrs: nounwind sspstrong uwtable
define hidden void @ruby_free_proctitle() #0 {
  %1 = alloca i32, align 4
  %2 = load ptr, ptr @orig_environ, align 8, !tbaa !11
  %3 = icmp ne ptr %2, null
  br i1 %3, label %5, label %4

4:                                                ; preds = %0
  br label %27

5:                                                ; preds = %0
  call void @llvm.lifetime.start.p0(i64 4, ptr %1) #6
  store i32 0, ptr %1, align 4, !tbaa !7
  br label %6

6:                                                ; preds = %20, %5
  %7 = load ptr, ptr @alloc_environ, align 8, !tbaa !11
  %8 = load i32, ptr %1, align 4, !tbaa !7
  %9 = sext i32 %8 to i64
  %10 = getelementptr ptr, ptr %7, i64 %9
  %11 = load ptr, ptr %10, align 8, !tbaa !14
  %12 = icmp ne ptr %11, null
  br i1 %12, label %14, label %13

13:                                               ; preds = %6
  call void @llvm.lifetime.end.p0(i64 4, ptr %1) #6
  br label %23

14:                                               ; preds = %6
  %15 = load ptr, ptr @alloc_environ, align 8, !tbaa !11
  %16 = load i32, ptr %1, align 4, !tbaa !7
  %17 = sext i32 %16 to i64
  %18 = getelementptr ptr, ptr %15, i64 %17
  %19 = load ptr, ptr %18, align 8, !tbaa !14
  call void @ruby_xfree(ptr noundef %19)
  br label %20

20:                                               ; preds = %14
  %21 = load i32, ptr %1, align 4, !tbaa !7
  %22 = add i32 %21, 1
  store i32 %22, ptr %1, align 4, !tbaa !7
  br label %6, !llvm.loop !23

23:                                               ; preds = %13
  %24 = load ptr, ptr @alloc_environ, align 8, !tbaa !11
  call void @ruby_xfree(ptr noundef %24)
  %25 = load ptr, ptr @orig_environ, align 8, !tbaa !11
  call void @ruby_xfree(ptr noundef %25)
  %26 = load ptr, ptr @system_environ, align 8, !tbaa !11
  store ptr %26, ptr @environ, align 8, !tbaa !11
  br label %27

27:                                               ; preds = %23, %4
  ret void
}