; Function Attrs: nounwind sspstrong uwtable
define hidden void @ruby_free_proctitle() local_unnamed_addr #0 {
  %1 = load ptr, ptr @orig_environ, align 8, !tbaa !7
  %.not = icmp eq ptr %1, null
  br i1 %.not, label %12, label %.preheader

.preheader:                                       ; preds = %0
  %2 = load ptr, ptr @alloc_environ, align 8, !tbaa !7
  %3 = load ptr, ptr %2, align 8, !tbaa !12
  %.not45 = icmp eq ptr %3, null
  br i1 %.not45, label %._crit_edge, label %.lr.ph

._crit_edge:                                      ; preds = %.lr.ph, %.preheader
  %.lcssa = phi ptr [ %2, %.preheader ], [ %8, %.lr.ph ]
  tail call void @ruby_xfree(ptr noundef nonnull %.lcssa) #10
  %4 = load ptr, ptr @orig_environ, align 8, !tbaa !7
  tail call void @ruby_xfree(ptr noundef %4) #10
  %5 = load ptr, ptr @system_environ, align 8, !tbaa !7
  store ptr %5, ptr @environ, align 8, !tbaa !7
  br label %12

.lr.ph:                                           ; preds = %.preheader, %.lr.ph
  %6 = phi ptr [ %11, %.lr.ph ], [ %3, %.preheader ]
  %.06 = phi i32 [ %7, %.lr.ph ], [ 0, %.preheader ]
  tail call void @ruby_xfree(ptr noundef nonnull %6) #10
  %7 = add i32 %.06, 1
  %8 = load ptr, ptr @alloc_environ, align 8, !tbaa !7
  %9 = sext i32 %7 to i64
  %10 = getelementptr ptr, ptr %8, i64 %9
  %11 = load ptr, ptr %10, align 8, !tbaa !12
  %.not4 = icmp eq ptr %11, null
  br i1 %.not4, label %._crit_edge, label %.lr.ph, !llvm.loop !21

12:                                               ; preds = %0, %._crit_edge
  ret void
}